; Function Attrs: mustprogress uwtable
define hidden noundef nonnull align 8 dereferenceable(8) ptr @_ZN4cvc58internal5prooflsERSoNS1_15CrowdingLitInfoE(ptr noundef nonnull returned align 8 dereferenceable(8) %0, ptr noundef readonly byval(%"struct.cvc5::internal::proof::CrowdingLitInfo") align 8 captures(none) %1) local_unnamed_addr #3 {
  %3 = tail call noundef nonnull align 8 dereferenceable(8) ptr @_ZSt16__ostream_insertIcSt11char_traitsIcEERSt13basic_ostreamIT_T0_ES6_PKS3_l(ptr noundef nonnull align 8 dereferenceable(8) %0, ptr noundef nonnull @.str, i64 noundef 1)
  %4 = load i64, ptr %1, align 8, !tbaa !3
  %5 = tail call noundef nonnull align 8 dereferenceable(8) ptr @_ZNSo9_M_insertImEERSoT_(ptr noundef nonnull align 8 dereferenceable(8) %0, i64 noundef %4)
  %6 = tail call noundef nonnull align 8 dereferenceable(8) ptr @_ZSt16__ostream_insertIcSt11char_traitsIcEERSt13basic_ostreamIT_T0_ES6_PKS3_l(ptr noundef nonnull align 8 dereferenceable(8) %5, ptr noundef nonnull @.str.1, i64 noundef 2)
  %7 = getelementptr inbounds nuw i8, ptr %1, i64 8
  %8 = load i64, ptr %7, align 8, !tbaa !9
  %9 = tail call noundef nonnull align 8 dereferenceable(8) ptr @_ZNSo9_M_insertImEERSoT_(ptr noundef nonnull align 8 dereferenceable(8) %5, i64 noundef %8)
  %10 = tail call noundef nonnull align 8 dereferenceable(8) ptr @_ZSt16__ostream_insertIcSt11char_traitsIcEERSt13basic_ostreamIT_T0_ES6_PKS3_l(ptr noundef nonnull align 8 dereferenceable(8) %9, ptr noundef nonnull @.str.1, i64 noundef 2)
  %11 = getelementptr inbounds nuw i8, ptr %1, i64 16
  %12 = load i8, ptr %11, align 8, !tbaa !10, !range !11, !noundef !12
  %13 = trunc nuw i8 %12 to i1
  br i1 %13, label %14, label %19

14:                                               ; preds = %2
  %15 = tail call noundef nonnull align 8 dereferenceable(8) ptr @_ZSt16__ostream_insertIcSt11char_traitsIcEERSt13basic_ostreamIT_T0_ES6_PKS3_l(ptr noundef nonnull align 8 dereferenceable(8) %0, ptr noundef nonnull @.str.2, i64 noundef 6)
  %16 = getelementptr inbounds nuw i8, ptr %1, i64 24
  %17 = load i64, ptr %16, align 8, !tbaa !13
  %18 = tail call noundef nonnull align 8 dereferenceable(8) ptr @_ZNSo9_M_insertImEERSoT_(ptr noundef nonnull align 8 dereferenceable(8) %0, i64 noundef %17)
  br label %21

19:                                               ; preds = %2
  %20 = tail call noundef nonnull align 8 dereferenceable(8) ptr @_ZSt16__ostream_insertIcSt11char_traitsIcEERSt13basic_ostreamIT_T0_ES6_PKS3_l(ptr noundef nonnull align 8 dereferenceable(8) %0, ptr noundef nonnull @.str.3, i64 noundef 5)
  br label %21

21:                                               ; preds = %19, %14
  %22 = tail call noundef nonnull align 8 dereferenceable(8) ptr @_ZSt16__ostream_insertIcSt11char_traitsIcEERSt13basic_ostreamIT_T0_ES6_PKS3_l(ptr noundef nonnull align 8 dereferenceable(8) %0, ptr noundef nonnull @.str.4, i64 noundef 1)
  ret ptr %0
}